; Function Attrs: mustprogress nofree norecurse nosync nounwind willreturn memory(read, inaccessiblemem: none) uwtable
define hidden noundef i32 @_ZNK3smt17theory_array_base13get_dimensionEP4sort(ptr nocapture noundef nonnull readnone align 8 dereferenceable(249) %this, ptr nocapture noundef readonly %s) local_unnamed_addr #5 align 2 {
entry:
  %m_info.i = getelementptr inbounds i8, ptr %s, i64 24
  %0 = load ptr, ptr %m_info.i, align 8
  %m_parameters.i = getelementptr inbounds i8, ptr %0, i64 8
  %1 = load ptr, ptr %m_parameters.i, align 8
  %cmp.i.i = icmp eq ptr %1, null
  br i1 %cmp.i.i, label %_ZNK9decl_info18get_num_parametersEv.exit, label %if.end.i.i

if.end.i.i:                                       ; preds = %entry
  %arrayidx.i.i = getelementptr inbounds i8, ptr %1, i64 -4
  %2 = load i32, ptr %arrayidx.i.i, align 4
  %3 = add i32 %2, -1
  br label %_ZNK9decl_info18get_num_parametersEv.exit

_ZNK9decl_info18get_num_parametersEv.exit:        ; preds = %entry, %if.end.i.i
  %retval.0.i.i = phi i32 [ %3, %if.end.i.i ], [ -1, %entry ]
  ret i32 %retval.0.i.i
}